; ModuleID = '60/1817.c'
source_filename = "60/1817.c"
target datalayout = "e-m:e-p270:32:32-p271:32:32-p272:64:64-i64:64-f80:128-n8:16:32:64-S128"
target triple = "x86_64-pc-linux-gnu"

@.str = private unnamed_addr constant [3 x i8] c"%d\00", align 1
@.str.1 = private unnamed_addr constant [6 x i8] c"empty\00", align 1
@.str.2 = private unnamed_addr constant [7 x i8] c"%d %d\0A\00", align 1

; Function Attrs: noinline nounwind uwtable
define dso_local i32 @main() #0 {
  %1 = alloca i32, align 4
  %2 = alloca i32, align 4
  %3 = alloca i32, align 4
  %4 = alloca i32, align 4
  %5 = alloca i32, align 4
  %6 = alloca i32, align 4
  %7 = alloca [10000 x i32], align 16
  store i32 0, i32* %1, align 4
  %8 = call i32 (i8*, ...) @__isoc99_scanf(i8* getelementptr inbounds ([3 x i8], [3 x i8]* @.str, i64 0, i64 0), i32* %6)
  store i32 2, i32* %4, align 4
  %9 = load i32, i32* %6, align 4
  %10 = icmp sle i32 %9, 4
  br i1 %10, label %11, label %13

11:                                               ; preds = %0
  %12 = call i32 (i8*, ...) @printf(i8* getelementptr inbounds ([6 x i8], [6 x i8]* @.str.1, i64 0, i64 0))
  br label %74

13:                                               ; preds = %0
  store i32 3, i32* %2, align 4
  br label %14

14:                                               ; preds = %69, %13
  store i32 2, i32* %5, align 4
  br label %15

15:                                               ; preds = %62, %14
  %16 = load i32, i32* %2, align 4
  %17 = load i32, i32* %5, align 4
  %18 = srem i32 %16, %17
  store i32 %18, i32* %3, align 4
  %19 = load i32, i32* %3, align 4
  %20 = icmp sgt i32 %19, 0
  br i1 %20, label %21, label %24

21:                                               ; preds = %15
  %22 = load i32, i32* %5, align 4
  %23 = add nsw i32 %22, 1
  store i32 %23, i32* %5, align 4
  br label %61

24:                                               ; preds = %15
  %25 = load i32, i32* %5, align 4
  %26 = load i32, i32* %2, align 4
  %27 = icmp eq i32 %25, %26
  br i1 %27, label %28, label %60

28:                                               ; preds = %24
  %29 = load i32, i32* %2, align 4
  %30 = load i32, i32* %4, align 4
  %31 = sext i32 %30 to i64
  %32 = getelementptr inbounds [10000 x i32], [10000 x i32]* %7, i64 0, i64 %31
  store i32 %29, i32* %32, align 4
  %33 = load i32, i32* %4, align 4
  %34 = add nsw i32 %33, 1
  store i32 %34, i32* %4, align 4
  %35 = load i32, i32* %4, align 4
  %36 = sub nsw i32 %35, 1
  %37 = sext i32 %36 to i64
  %38 = getelementptr inbounds [10000 x i32], [10000 x i32]* %7, i64 0, i64 %37
  %39 = load i32, i32* %38, align 4
  %40 = load i32, i32* %4, align 4
  %41 = sub nsw i32 %40, 2
  %42 = sext i32 %41 to i64
  %43 = getelementptr inbounds [10000 x i32], [10000 x i32]* %7, i64 0, i64 %42
  %44 = load i32, i32* %43, align 4
  %45 = sub nsw i32 %39, %44
  %46 = icmp eq i32 %45, 2
  br i1 %46, label %47, label %59

47:                                               ; preds = %28
  %48 = load i32, i32* %4, align 4
  %49 = sub nsw i32 %48, 2
  %50 = sext i32 %49 to i64
  %51 = getelementptr inbounds [10000 x i32], [10000 x i32]* %7, i64 0, i64 %50
  %52 = load i32, i32* %51, align 4
  %53 = load i32, i32* %4, align 4
  %54 = sub nsw i32 %53, 1
  %55 = sext i32 %54 to i64
  %56 = getelementptr inbounds [10000 x i32], [10000 x i32]* %7, i64 0, i64 %55
  %57 = load i32, i32* %56, align 4
  %58 = call i32 (i8*, ...) @printf(i8* getelementptr inbounds ([7 x i8], [7 x i8]* @.str.2, i64 0, i64 0), i32 %52, i32 %57)
  br label %59

59:                                               ; preds = %47, %28
  br label %66

60:                                               ; preds = %24
  br label %66

61:                                               ; preds = %21
  br label %62

62:                                               ; preds = %61
  %63 = load i32, i32* %5, align 4
  %64 = load i32, i32* %2, align 4
  %65 = icmp sle i32 %63, %64
  br i1 %65, label %15, label %66

66:                                               ; preds = %62, %60, %59
  %67 = load i32, i32* %2, align 4
  %68 = add nsw i32 %67, 1
  store i32 %68, i32* %2, align 4
  br label %69

69:                                               ; preds = %66
  %70 = load i32, i32* %2, align 4
  %71 = load i32, i32* %6, align 4
  %72 = icmp sle i32 %70, %71
  br i1 %72, label %14, label %73

73:                                               ; preds = %69
  br label %74

74:                                               ; preds = %73, %11
  %75 = load i32, i32* %1, align 4
  ret i32 %75
}

declare dso_local i32 @__isoc99_scanf(i8*, ...) #1

declare dso_local i32 @printf(i8*, ...) #1


!llvm.module.flags = !{!0}
!llvm.ident = !{!1}

!0 = !{i32 1, !"wchar_size", i32 4}
!1 = !{!"clang version 10.0.0-4ubuntu1 "}
